target datalayout = "e-m:e-p270:32:32-p271:32:32-p272:64:64-i64:64-i128:128-f80:128-n8:16:32:64-S128"
target triple = "x86_64-pc-linux-gnu"

%struct.rows_t = type { ptr, i64, i64, i64 }
%struct.htmltbl_t = type { %struct.htmldata_t, %union.anon.0, i8, ptr, ptr, i64, i64, ptr, i8 }
%struct.htmldata_t = type { ptr, ptr, ptr, ptr, ptr, ptr, ptr, i32, i8, i8, i8, i8, i16, i16, i16, %struct.htmlstyle_t, %struct.boxf }
%struct.htmlstyle_t = type { i8 }
%struct.boxf = type { %struct.pointf_s, %struct.pointf_s }
%struct.pointf_s = type { double, double }
%union.anon.0 = type { %struct.anon.2 }
%struct.anon.2 = type { ptr, %struct.rows_t }
%struct.row_t = type { %struct.cells_t, i8 }
%struct.cells_t = type { ptr, i64, i64, i64 }
%struct.htmlcell_t = type { %struct.htmldata_t, i16, i16, i16, i16, %struct.htmllabel_t, ptr, i8 }
%struct.htmllabel_t = type { %union.anon.3, i32 }
%union.anon.3 = type { ptr }

; Function Attrs: inlinehint nounwind uwtable
define internal void @cells_noop_(ptr noundef %0) #6 {
  %2 = alloca ptr, align 8
  store ptr %0, ptr %2, align 8, !tbaa !107
  ret void
}

; Function Attrs: inlinehint nounwind uwtable
define internal void @cells_clear(ptr noundef %0) #6 {
  %2 = alloca ptr, align 8
  %3 = alloca i64, align 8
  store ptr %0, ptr %2, align 8, !tbaa !36
  call void @llvm.lifetime.start.p0(i64 8, ptr %3) #13
  store i64 0, ptr %3, align 8, !tbaa !12
  br label %4

4:                                                ; preds = %18, %1
  %5 = load i64, ptr %3, align 8, !tbaa !12
  %6 = load ptr, ptr %2, align 8, !tbaa !36
  %7 = getelementptr inbounds nuw %struct.cells_t, ptr %6, i32 0, i32 2
  %8 = load i64, ptr %7, align 8, !tbaa !140
  %9 = icmp ult i64 %5, %8
  br i1 %9, label %11, label %10

10:                                               ; preds = %4
  call void @llvm.lifetime.end.p0(i64 8, ptr %3) #13
  br label %21

11:                                               ; preds = %4
  %12 = load ptr, ptr %2, align 8, !tbaa !36
  %13 = load i64, ptr %3, align 8, !tbaa !12
  %14 = call ptr @cells_get(ptr noundef %12, i64 noundef %13)
  call void @cells_noop_(ptr noundef %14)
  br label %15

15:                                               ; preds = %11
  br label %16

16:                                               ; preds = %15
  br label %17

17:                                               ; preds = %16
  br label %18

18:                                               ; preds = %17
  %19 = load i64, ptr %3, align 8, !tbaa !12
  %20 = add i64 %19, 1
  store i64 %20, ptr %3, align 8, !tbaa !12
  br label %4, !llvm.loop !148

21:                                               ; preds = %10
  %22 = load ptr, ptr %2, align 8, !tbaa !36
  %23 = getelementptr inbounds nuw %struct.cells_t, ptr %22, i32 0, i32 2
  store i64 0, ptr %23, align 8, !tbaa !140
  %24 = load ptr, ptr %2, align 8, !tbaa !36
  %25 = getelementptr inbounds nuw %struct.cells_t, ptr %24, i32 0, i32 1
  store i64 0, ptr %25, align 8, !tbaa !144
  ret void
}

; Function Attrs: inlinehint nounwind uwtable
define internal void @cells_free(ptr noundef %0) #6 {
  %2 = alloca ptr, align 8
  store ptr %0, ptr %2, align 8, !tbaa !36
  %3 = load ptr, ptr %2, align 8, !tbaa !36
  call void @cells_clear(ptr noundef %3)
  %4 = load ptr, ptr %2, align 8, !tbaa !36
  %5 = getelementptr inbounds nuw %struct.cells_t, ptr %4, i32 0, i32 0
  %6 = load ptr, ptr %5, align 8, !tbaa !142
  call void @free(ptr noundef %6) #13
  %7 = load ptr, ptr %2, align 8, !tbaa !36
  call void @llvm.memset.p0.i64(ptr align 8 %7, i8 0, i64 32, i1 false)
  ret void
}

; Function Attrs: inlinehint nounwind uwtable
define internal void @free_ritem(ptr noundef %0) #6 {
  %2 = alloca ptr, align 8
  store ptr %0, ptr %2, align 8, !tbaa !36
  %3 = load ptr, ptr %2, align 8, !tbaa !36
  %4 = getelementptr inbounds nuw %struct.row_t, ptr %3, i32 0, i32 0
  call void @cells_free(ptr noundef %4)
  %5 = load ptr, ptr %2, align 8, !tbaa !36
  call void @free(ptr noundef %5) #13
  ret void
}

; Function Attrs: inlinehint nounwind uwtable
define internal void @rows_clear(ptr noundef %0) #6 {
  %2 = alloca ptr, align 8
  %3 = alloca i64, align 8
  store ptr %0, ptr %2, align 8, !tbaa !36
  call void @llvm.lifetime.start.p0(i64 8, ptr %3) #13
  store i64 0, ptr %3, align 8, !tbaa !12
  br label %4

4:                                                ; preds = %18, %1
  %5 = load i64, ptr %3, align 8, !tbaa !12
  %6 = load ptr, ptr %2, align 8, !tbaa !36
  %7 = getelementptr inbounds nuw %struct.rows_t, ptr %6, i32 0, i32 2
  %8 = load i64, ptr %7, align 8, !tbaa !136
  %9 = icmp ult i64 %5, %8
  br i1 %9, label %11, label %10

10:                                               ; preds = %4
  call void @llvm.lifetime.end.p0(i64 8, ptr %3) #13
  br label %21

11:                                               ; preds = %4
  %12 = load ptr, ptr %2, align 8, !tbaa !36
  %13 = load i64, ptr %3, align 8, !tbaa !12
  %14 = call ptr @rows_get(ptr noundef %12, i64 noundef %13)
  call void @free_ritem(ptr noundef %14)
  br label %15

15:                                               ; preds = %11
  br label %16

16:                                               ; preds = %15
  br label %17

17:                                               ; preds = %16
  br label %18

18:                                               ; preds = %17
  %19 = load i64, ptr %3, align 8, !tbaa !12
  %20 = add i64 %19, 1
  store i64 %20, ptr %3, align 8, !tbaa !12
  br label %4, !llvm.loop !147

21:                                               ; preds = %10
  %22 = load ptr, ptr %2, align 8, !tbaa !36
  %23 = getelementptr inbounds nuw %struct.rows_t, ptr %22, i32 0, i32 2
  store i64 0, ptr %23, align 8, !tbaa !136
  %24 = load ptr, ptr %2, align 8, !tbaa !36
  %25 = getelementptr inbounds nuw %struct.rows_t, ptr %24, i32 0, i32 1
  store i64 0, ptr %25, align 8, !tbaa !134
  ret void
}

; Function Attrs: inlinehint nounwind uwtable
define internal void @rows_free(ptr noundef %0) #6 {
  %2 = alloca ptr, align 8
  store ptr %0, ptr %2, align 8, !tbaa !36
  %3 = load ptr, ptr %2, align 8, !tbaa !36
  call void @rows_clear(ptr noundef %3)
  %4 = load ptr, ptr %2, align 8, !tbaa !36
  %5 = getelementptr inbounds nuw %struct.rows_t, ptr %4, i32 0, i32 0
  %6 = load ptr, ptr %5, align 8, !tbaa !131
  call void @free(ptr noundef %6) #13
  %7 = load ptr, ptr %2, align 8, !tbaa !36
  call void @llvm.memset.p0.i64(ptr align 8 %7, i8 0, i64 32, i1 false)
  ret void
}

; Function Attrs: nounwind uwtable
define internal void @cleanCell(ptr noundef %0) #0 {
  %2 = alloca ptr, align 8
  store ptr %0, ptr %2, align 8, !tbaa !107
  %3 = load ptr, ptr %2, align 8, !tbaa !107
  %4 = getelementptr inbounds nuw %struct.htmlcell_t, ptr %3, i32 0, i32 5
  %5 = getelementptr inbounds nuw %struct.htmllabel_t, ptr %4, i32 0, i32 1
  %6 = load i32, ptr %5, align 8, !tbaa !109
  %7 = icmp eq i32 %6, 1
  br i1 %7, label %8, label %13

8:                                                ; preds = %1
  %9 = load ptr, ptr %2, align 8, !tbaa !107
  %10 = getelementptr inbounds nuw %struct.htmlcell_t, ptr %9, i32 0, i32 5
  %11 = getelementptr inbounds nuw %struct.htmllabel_t, ptr %10, i32 0, i32 0
  %12 = load ptr, ptr %11, align 8, !tbaa !9
  call void @cleanTbl(ptr noundef %12)
  br label %25

13:                                               ; preds = %1
  %14 = load ptr, ptr %2, align 8, !tbaa !107
  %15 = getelementptr inbounds nuw %struct.htmlcell_t, ptr %14, i32 0, i32 5
  %16 = getelementptr inbounds nuw %struct.htmllabel_t, ptr %15, i32 0, i32 1
  %17 = load i32, ptr %16, align 8, !tbaa !109
  %18 = icmp eq i32 %17, 2
  br i1 %18, label %19, label %24

19:                                               ; preds = %13
  %20 = load ptr, ptr %2, align 8, !tbaa !107
  %21 = getelementptr inbounds nuw %struct.htmlcell_t, ptr %20, i32 0, i32 5
  %22 = getelementptr inbounds nuw %struct.htmllabel_t, ptr %21, i32 0, i32 0
  %23 = load ptr, ptr %22, align 8, !tbaa !9
  call void @free_html_text(ptr noundef %23)
  br label %24

24:                                               ; preds = %19, %13
  br label %25

25:                                               ; preds = %24, %8
  %26 = load ptr, ptr %2, align 8, !tbaa !107
  %27 = getelementptr inbounds nuw %struct.htmlcell_t, ptr %26, i32 0, i32 0
  call void @free_html_data(ptr noundef %27)
  %28 = load ptr, ptr %2, align 8, !tbaa !107
  call void @free(ptr noundef %28) #13
  ret void
}

; Function Attrs: inlinehint nounwind uwtable
define internal ptr @cells_get(ptr noundef %0, i64 noundef %1) #6 {
  %3 = alloca ptr, align 8
  %4 = alloca i64, align 8
  store ptr %0, ptr %3, align 8, !tbaa !36
  store i64 %1, ptr %4, align 8, !tbaa !12
  %5 = load ptr, ptr %3, align 8, !tbaa !36
  %6 = getelementptr inbounds nuw %struct.cells_t, ptr %5, i32 0, i32 0
  %7 = load ptr, ptr %6, align 8, !tbaa !142
  %8 = load ptr, ptr %3, align 8, !tbaa !36
  %9 = getelementptr inbounds nuw %struct.cells_t, ptr %8, i32 0, i32 1
  %10 = load i64, ptr %9, align 8, !tbaa !144
  %11 = load i64, ptr %4, align 8, !tbaa !12
  %12 = add i64 %10, %11
  %13 = load ptr, ptr %3, align 8, !tbaa !36
  %14 = getelementptr inbounds nuw %struct.cells_t, ptr %13, i32 0, i32 3
  %15 = load i64, ptr %14, align 8, !tbaa !141
  %16 = urem i64 %12, %15
  %17 = getelementptr inbounds nuw ptr, ptr %7, i64 %16
  %18 = load ptr, ptr %17, align 8, !tbaa !107
  ret ptr %18
}

; Function Attrs: inlinehint nounwind uwtable
define internal i64 @cells_size(ptr noundef %0) #6 {
  %2 = alloca ptr, align 8
  store ptr %0, ptr %2, align 8, !tbaa !36
  %3 = load ptr, ptr %2, align 8, !tbaa !36
  %4 = getelementptr inbounds nuw %struct.cells_t, ptr %3, i32 0, i32 2
  %5 = load i64, ptr %4, align 8, !tbaa !140
  ret i64 %5
}

; Function Attrs: inlinehint nounwind uwtable
define internal ptr @rows_get(ptr noundef %0, i64 noundef %1) #6 {
  %3 = alloca ptr, align 8
  %4 = alloca i64, align 8
  store ptr %0, ptr %3, align 8, !tbaa !36
  store i64 %1, ptr %4, align 8, !tbaa !12
  %5 = load ptr, ptr %3, align 8, !tbaa !36
  %6 = getelementptr inbounds nuw %struct.rows_t, ptr %5, i32 0, i32 0
  %7 = load ptr, ptr %6, align 8, !tbaa !131
  %8 = load ptr, ptr %3, align 8, !tbaa !36
  %9 = getelementptr inbounds nuw %struct.rows_t, ptr %8, i32 0, i32 1
  %10 = load i64, ptr %9, align 8, !tbaa !134
  %11 = load i64, ptr %4, align 8, !tbaa !12
  %12 = add i64 %10, %11
  %13 = load ptr, ptr %3, align 8, !tbaa !36
  %14 = getelementptr inbounds nuw %struct.rows_t, ptr %13, i32 0, i32 3
  %15 = load i64, ptr %14, align 8, !tbaa !135
  %16 = urem i64 %12, %15
  %17 = getelementptr inbounds nuw ptr, ptr %7, i64 %16
  %18 = load ptr, ptr %17, align 8, !tbaa !36
  ret ptr %18
}

; Function Attrs: inlinehint nounwind uwtable
define internal i64 @rows_size(ptr noundef %0) #6 {
  %2 = alloca ptr, align 8
  store ptr %0, ptr %2, align 8, !tbaa !36
  %3 = load ptr, ptr %2, align 8, !tbaa !36
  %4 = getelementptr inbounds nuw %struct.rows_t, ptr %3, i32 0, i32 2
  %5 = load i64, ptr %4, align 8, !tbaa !136
  ret i64 %5
}

; Function Attrs: nounwind uwtable
define internal void @cleanTbl(ptr noundef %0) #0 {
  %2 = alloca ptr, align 8
  %3 = alloca ptr, align 8
  %4 = alloca i64, align 8
  %5 = alloca i32, align 4
  %6 = alloca ptr, align 8
  %7 = alloca i64, align 8
  store ptr %0, ptr %2, align 8, !tbaa !58
  call void @llvm.lifetime.start.p0(i64 8, ptr %3) #13
  %8 = load ptr, ptr %2, align 8, !tbaa !58
  %9 = getelementptr inbounds nuw %struct.htmltbl_t, ptr %8, i32 0, i32 1
  %10 = getelementptr inbounds nuw %struct.anon.2, ptr %9, i32 0, i32 1
  store ptr %10, ptr %3, align 8, !tbaa !36
  call void @llvm.lifetime.start.p0(i64 8, ptr %4) #13
  store i64 0, ptr %4, align 8, !tbaa !12
  br label %11

11:                                               ; preds = %37, %1
  %12 = load i64, ptr %4, align 8, !tbaa !12
  %13 = load ptr, ptr %3, align 8, !tbaa !36
  %14 = call i64 @rows_size(ptr noundef %13)
  %15 = icmp ult i64 %12, %14
  br i1 %15, label %17, label %16

16:                                               ; preds = %11
  store i32 2, ptr %5, align 4
  call void @llvm.lifetime.end.p0(i64 8, ptr %4) #13
  br label %40

17:                                               ; preds = %11
  call void @llvm.lifetime.start.p0(i64 8, ptr %6) #13
  %18 = load ptr, ptr %3, align 8, !tbaa !36
  %19 = load i64, ptr %4, align 8, !tbaa !12
  %20 = call ptr @rows_get(ptr noundef %18, i64 noundef %19)
  store ptr %20, ptr %6, align 8, !tbaa !36
  call void @llvm.lifetime.start.p0(i64 8, ptr %7) #13
  store i64 0, ptr %7, align 8, !tbaa !12
  br label %21

21:                                               ; preds = %33, %17
  %22 = load i64, ptr %7, align 8, !tbaa !12
  %23 = load ptr, ptr %6, align 8, !tbaa !36
  %24 = getelementptr inbounds nuw %struct.row_t, ptr %23, i32 0, i32 0
  %25 = call i64 @cells_size(ptr noundef %24)
  %26 = icmp ult i64 %22, %25
  br i1 %26, label %28, label %27

27:                                               ; preds = %21
  store i32 5, ptr %5, align 4
  call void @llvm.lifetime.end.p0(i64 8, ptr %7) #13
  br label %36

28:                                               ; preds = %21
  %29 = load ptr, ptr %6, align 8, !tbaa !36
  %30 = getelementptr inbounds nuw %struct.row_t, ptr %29, i32 0, i32 0
  %31 = load i64, ptr %7, align 8, !tbaa !12
  %32 = call ptr @cells_get(ptr noundef %30, i64 noundef %31)
  call void @cleanCell(ptr noundef %32)
  br label %33

33:                                               ; preds = %28
  %34 = load i64, ptr %7, align 8, !tbaa !12
  %35 = add i64 %34, 1
  store i64 %35, ptr %7, align 8, !tbaa !12
  br label %21, !llvm.loop !145

36:                                               ; preds = %27
  call void @llvm.lifetime.end.p0(i64 8, ptr %6) #13
  br label %37

37:                                               ; preds = %36
  %38 = load i64, ptr %4, align 8, !tbaa !12
  %39 = add i64 %38, 1
  store i64 %39, ptr %4, align 8, !tbaa !12
  br label %11, !llvm.loop !146

40:                                               ; preds = %16
  %41 = load ptr, ptr %3, align 8, !tbaa !36
  call void @rows_free(ptr noundef %41)
  %42 = load ptr, ptr %2, align 8, !tbaa !58
  %43 = getelementptr inbounds nuw %struct.htmltbl_t, ptr %42, i32 0, i32 0
  call void @free_html_data(ptr noundef %43)
  %44 = load ptr, ptr %2, align 8, !tbaa !58
  call void @free(ptr noundef %44) #13
  call void @llvm.lifetime.end.p0(i64 8, ptr %3) #13
  ret void
}