; Function Attrs: nounwind uwtable
define internal fastcc void @cleanTbl(ptr noundef %0) unnamed_addr #0 {
  %2 = getelementptr inbounds nuw i8, ptr %0, i64 112
  %3 = getelementptr i8, ptr %0, i64 128
  %.val17 = load i64, ptr %3, align 8, !tbaa !29
  %.not = icmp eq i64 %.val17, 0
  br i1 %.not, label %rows_free.exit, label %.lr.ph20

.lr.ph20:                                         ; preds = %1
  %4 = getelementptr inbounds nuw i8, ptr %0, i64 120
  %5 = getelementptr inbounds nuw i8, ptr %0, i64 136
  br label %24

._crit_edge21:                                    ; preds = %._crit_edge
  %6 = icmp eq i64 %.val, 0
  br i1 %6, label %rows_free.exit, label %.lr.ph.i.i

.lr.ph.i.i:                                       ; preds = %._crit_edge21
  %7 = getelementptr inbounds nuw i8, ptr %0, i64 120
  %8 = getelementptr inbounds nuw i8, ptr %0, i64 136
  br label %9

9:                                                ; preds = %9, %.lr.ph.i.i
  %.06.i.i = phi i64 [ 0, %.lr.ph.i.i ], [ %19, %9 ]
  %10 = load ptr, ptr %2, align 8, !tbaa !30
  %11 = load i64, ptr %7, align 8, !tbaa !31
  %12 = add i64 %11, %.06.i.i
  %13 = load i64, ptr %8, align 8, !tbaa !32
  %14 = urem i64 %12, %13
  %15 = getelementptr inbounds nuw ptr, ptr %10, i64 %14
  %16 = load ptr, ptr %15, align 8, !tbaa !33
  %17 = getelementptr inbounds nuw i8, ptr %16, i64 8
  tail call void @llvm.memset.p0.i64(ptr noundef nonnull align 8 dereferenceable(16) %17, i8 0, i64 16, i1 false)
  %18 = load ptr, ptr %16, align 8, !tbaa !113
  tail call void @free(ptr noundef %18) #16
  tail call void @free(ptr noundef %16) #16
  %19 = add nuw i64 %.06.i.i, 1
  %20 = load i64, ptr %3, align 8, !tbaa !29
  %21 = icmp ult i64 %19, %20
  br i1 %21, label %9, label %rows_free.exit, !llvm.loop !144

rows_free.exit:                                   ; preds = %9, %1, %._crit_edge21
  %22 = getelementptr inbounds nuw i8, ptr %0, i64 120
  tail call void @llvm.memset.p0.i64(ptr noundef nonnull align 8 dereferenceable(16) %22, i8 0, i64 16, i1 false)
  %23 = load ptr, ptr %2, align 8, !tbaa !30
  tail call void @free(ptr noundef %23) #16
  tail call void @llvm.memset.p0.i64(ptr noundef nonnull align 8 dereferenceable(32) %2, i8 0, i64 32, i1 false)
  tail call void @free_html_data(ptr noundef nonnull %0) #16
  tail call void @free(ptr noundef nonnull %0) #16
  ret void

24:                                               ; preds = %.lr.ph20, %._crit_edge
  %.val24 = phi i64 [ %.val17, %.lr.ph20 ], [ %.val, %._crit_edge ]
  %.01318 = phi i64 [ 0, %.lr.ph20 ], [ %35, %._crit_edge ]
  %25 = load ptr, ptr %2, align 8, !tbaa !30
  %26 = load i64, ptr %4, align 8, !tbaa !31
  %27 = add i64 %26, %.01318
  %28 = load i64, ptr %5, align 8, !tbaa !32
  %29 = urem i64 %27, %28
  %30 = getelementptr inbounds nuw ptr, ptr %25, i64 %29
  %31 = load ptr, ptr %30, align 8, !tbaa !33
  %32 = getelementptr i8, ptr %31, i64 16
  %.val1415 = load i64, ptr %32, align 8, !tbaa !110
  %.not22 = icmp eq i64 %.val1415, 0
  br i1 %.not22, label %._crit_edge, label %.lr.ph

.lr.ph:                                           ; preds = %24
  %33 = getelementptr inbounds nuw i8, ptr %31, i64 8
  %34 = getelementptr inbounds nuw i8, ptr %31, i64 24
  br label %37

._crit_edge.loopexit:                             ; preds = %cleanCell.exit
  %.val.pre = load i64, ptr %3, align 8, !tbaa !29
  br label %._crit_edge

._crit_edge:                                      ; preds = %._crit_edge.loopexit, %24
  %.val = phi i64 [ %.val.pre, %._crit_edge.loopexit ], [ %.val24, %24 ]
  %35 = add nuw i64 %.01318, 1
  %36 = icmp ult i64 %35, %.val
  br i1 %36, label %24, label %._crit_edge21, !llvm.loop !145

37:                                               ; preds = %.lr.ph, %cleanCell.exit
  %.016 = phi i64 [ 0, %.lr.ph ], [ %52, %cleanCell.exit ]
  %38 = load ptr, ptr %31, align 8, !tbaa !113
  %39 = load i64, ptr %33, align 8, !tbaa !112
  %40 = add i64 %39, %.016
  %41 = load i64, ptr %34, align 8, !tbaa !111
  %42 = urem i64 %40, %41
  %43 = getelementptr inbounds nuw ptr, ptr %38, i64 %42
  %44 = load ptr, ptr %43, align 8, !tbaa !114
  %45 = getelementptr inbounds nuw i8, ptr %44, i64 112
  %46 = getelementptr inbounds nuw i8, ptr %44, i64 120
  %47 = load i32, ptr %46, align 8, !tbaa !116
  switch i32 %47, label %cleanCell.exit [
    i32 1, label %48
    i32 2, label %50
  ]

48:                                               ; preds = %37
  %49 = load ptr, ptr %45, align 8, !tbaa !3
  tail call fastcc void @cleanTbl(ptr noundef %49)
  br label %cleanCell.exit

50:                                               ; preds = %37
  %51 = load ptr, ptr %45, align 8, !tbaa !3
  tail call void @free_html_text(ptr noundef %51) #16
  br label %cleanCell.exit

cleanCell.exit:                                   ; preds = %37, %48, %50
  tail call void @free_html_data(ptr noundef nonnull %44) #16
  tail call void @free(ptr noundef nonnull %44) #16
  %52 = add nuw i64 %.016, 1
  %.val14 = load i64, ptr %32, align 8, !tbaa !110
  %53 = icmp ult i64 %52, %.val14
  br i1 %53, label %37, label %._crit_edge.loopexit, !llvm.loop !146
}